; Function Attrs: mustprogress uwtable
define void @_ZN17grpc_event_engine12experimental22WorkStealingThreadPool11ThreadState14SleepIfRunningEv(ptr nocapture noundef nonnull readonly align 8 dereferenceable(368) %this) local_unnamed_addr #3 align 2 {
entry:
  %0 = load ptr, ptr %this, align 8
  %forking_.i = getelementptr inbounds i8, ptr %0, i64 225
  %1 = load atomic i8, ptr %forking_.i monotonic, align 1
  %2 = and i8 %1, 1
  %tobool.i.i.i.not = icmp eq i8 %2, 0
  br i1 %tobool.i.i.i.not, label %if.end, label %return

if.end:                                           ; preds = %entry
  tail call void @AbslInternalSleepFor_lts_20230802(i64 1, i32 0)
  br label %return

return:                                           ; preds = %entry, %if.end
  ret void
}